target datalayout = "e-m:e-p270:32:32-p271:32:32-p272:64:64-i64:64-i128:128-f80:128-n8:16:32:64-S128"
target triple = "x86_64-pc-linux-gnu"

%struct.xdot_color_stop = type { float, ptr }

@.str.69 = private unnamed_addr constant [2 x i8] c",\00", align 1
@.str.71 = private unnamed_addr constant [3 x i8] c"]\0A\00", align 1
@.str.74 = private unnamed_addr constant [11 x i8] c"\22stops\22: [\00", align 1
@.str.75 = private unnamed_addr constant [26 x i8] c"{\22frac\22: %.03f, \22color\22: \00", align 1

; Function Attrs: nounwind uwtable
define internal void @write_stops(ptr noundef %0, i32 noundef %1, ptr noundef %2, ptr noundef %3) #0 {
  %5 = alloca ptr, align 8
  %6 = alloca i32, align 4
  %7 = alloca ptr, align 8
  %8 = alloca ptr, align 8
  %9 = alloca i32, align 4
  store ptr %0, ptr %5, align 8, !tbaa !3
  store i32 %1, ptr %6, align 4, !tbaa !101
  store ptr %2, ptr %7, align 8, !tbaa !100
  store ptr %3, ptr %8, align 8, !tbaa !100
  call void @llvm.lifetime.start.p0(i64 4, ptr %9) #9
  %10 = load ptr, ptr %5, align 8, !tbaa !3
  call void (ptr, ptr, ...) @gvprintf(ptr noundef %10, ptr noundef @.str.74)
  store i32 0, ptr %9, align 4, !tbaa !101
  br label %11

11:                                               ; preds = %39, %4
  %12 = load i32, ptr %9, align 4, !tbaa !101
  %13 = load i32, ptr %6, align 4, !tbaa !101
  %14 = icmp slt i32 %12, %13
  br i1 %14, label %15, label %42

15:                                               ; preds = %11
  %16 = load i32, ptr %9, align 4, !tbaa !101
  %17 = icmp sgt i32 %16, 0
  br i1 %17, label %18, label %20

18:                                               ; preds = %15
  %19 = load ptr, ptr %5, align 8, !tbaa !3
  call void (ptr, ptr, ...) @gvprintf(ptr noundef %19, ptr noundef @.str.69)
  br label %20

20:                                               ; preds = %18, %15
  %21 = load ptr, ptr %5, align 8, !tbaa !3
  %22 = load ptr, ptr %7, align 8, !tbaa !100
  %23 = load i32, ptr %9, align 4, !tbaa !101
  %24 = sext i32 %23 to i64
  %25 = getelementptr inbounds %struct.xdot_color_stop, ptr %22, i64 %24
  %26 = getelementptr inbounds nuw %struct.xdot_color_stop, ptr %25, i32 0, i32 0
  %27 = load float, ptr %26, align 8, !tbaa !173
  %28 = fpext float %27 to double
  call void (ptr, ptr, ...) @gvprintf(ptr noundef %21, ptr noundef @.str.75, double noundef %28)
  %29 = load ptr, ptr %7, align 8, !tbaa !100
  %30 = load i32, ptr %9, align 4, !tbaa !101
  %31 = sext i32 %30 to i64
  %32 = getelementptr inbounds %struct.xdot_color_stop, ptr %29, i64 %31
  %33 = getelementptr inbounds nuw %struct.xdot_color_stop, ptr %32, i32 0, i32 1
  %34 = load ptr, ptr %33, align 8, !tbaa !176
  %35 = load ptr, ptr %8, align 8, !tbaa !100
  %36 = load ptr, ptr %5, align 8, !tbaa !3
  call void @stoj(ptr noundef %34, ptr noundef %35, ptr noundef %36)
  %37 = load ptr, ptr %5, align 8, !tbaa !3
  %38 = call i32 @gvputc(ptr noundef %37, i32 noundef 125)
  br label %39

39:                                               ; preds = %20
  %40 = load i32, ptr %9, align 4, !tbaa !101
  %41 = add nsw i32 %40, 1
  store i32 %41, ptr %9, align 4, !tbaa !101
  br label %11, !llvm.loop !177

42:                                               ; preds = %11
  %43 = load ptr, ptr %5, align 8, !tbaa !3
  call void (ptr, ptr, ...) @gvprintf(ptr noundef %43, ptr noundef @.str.71)
  call void @llvm.lifetime.end.p0(i64 4, ptr %9) #9
  ret void
}