; Function Attrs: nounwind uwtable
define internal fastcc void @write_stops(ptr noundef %0, i32 noundef %1, ptr noundef readonly captures(none) %2, ptr noundef nonnull readonly captures(none) %3) unnamed_addr #0 {
  tail call void (ptr, ptr, ...) @gvprintf(ptr noundef %0, ptr noundef nonnull @.str.74) #15
  %5 = icmp sgt i32 %1, 0
  br i1 %5, label %.lr.ph.preheader, label %._crit_edge

.lr.ph.preheader:                                 ; preds = %4
  %wide.trip.count = zext nneg i32 %1 to i64
  br label %.lr.ph

.lr.ph:                                           ; preds = %.lr.ph.preheader, %7
  %indvars.iv = phi i64 [ 0, %.lr.ph.preheader ], [ %indvars.iv.next, %7 ]
  %.not = icmp eq i64 %indvars.iv, 0
  br i1 %.not, label %7, label %6

6:                                                ; preds = %.lr.ph
  tail call void (ptr, ptr, ...) @gvprintf(ptr noundef %0, ptr noundef nonnull @.str.69) #15
  br label %7

7:                                                ; preds = %6, %.lr.ph
  %8 = getelementptr inbounds nuw %struct.xdot_color_stop, ptr %2, i64 %indvars.iv
  %9 = load float, ptr %8, align 8, !tbaa !160
  %10 = fpext float %9 to double
  tail call void (ptr, ptr, ...) @gvprintf(ptr noundef %0, ptr noundef nonnull @.str.75, double noundef %10) #15
  %11 = getelementptr inbounds nuw i8, ptr %8, i64 8
  %12 = load ptr, ptr %11, align 8, !tbaa !163
  tail call fastcc void @stoj(ptr noundef %12, ptr noundef %3, ptr noundef %0)
  %13 = tail call i32 @gvputc(ptr noundef %0, i32 noundef 125) #15
  %indvars.iv.next = add nuw nsw i64 %indvars.iv, 1
  %exitcond.not = icmp eq i64 %indvars.iv.next, %wide.trip.count
  br i1 %exitcond.not, label %._crit_edge, label %.lr.ph, !llvm.loop !164

._crit_edge:                                      ; preds = %7, %4
  tail call void (ptr, ptr, ...) @gvprintf(ptr noundef %0, ptr noundef nonnull @.str.71) #15
  ret void
}